target datalayout = "e-m:e-p270:32:32-p271:32:32-p272:64:64-i64:64-i128:128-f80:128-n8:16:32:64-S128"
target triple = "x86_64-pc-linux-gnu"

%struct.deparse_context = type { ptr, ptr, ptr, ptr, ptr, i32, i32, i32, i8, i8, i8, i8, ptr }

; Function Attrs: nounwind uwtable
define internal void @get_rule_expr_paren(ptr noundef %0, ptr noundef %1, i1 noundef zeroext %2, ptr noundef %3) #0 {
  %5 = alloca ptr, align 8
  %6 = alloca ptr, align 8
  %7 = alloca i8, align 1
  %8 = alloca ptr, align 8
  %9 = alloca i8, align 1
  store ptr %0, ptr %5, align 8
  store ptr %1, ptr %6, align 8
  %10 = zext i1 %2 to i8
  store i8 %10, ptr %7, align 1
  store ptr %3, ptr %8, align 8
  call void @llvm.lifetime.start.p0(i64 1, ptr %9) #10
  %11 = load ptr, ptr %6, align 8
  %12 = getelementptr inbounds nuw %struct.deparse_context, ptr %11, i32 0, i32 5
  %13 = load i32, ptr %12, align 8
  %14 = and i32 %13, 1
  %15 = icmp ne i32 %14, 0
  br i1 %15, label %16, label %24

16:                                               ; preds = %4
  %17 = load ptr, ptr %5, align 8
  %18 = load ptr, ptr %8, align 8
  %19 = load ptr, ptr %6, align 8
  %20 = getelementptr inbounds nuw %struct.deparse_context, ptr %19, i32 0, i32 5
  %21 = load i32, ptr %20, align 8
  %22 = call zeroext i1 @isSimpleNode(ptr noundef %17, ptr noundef %18, i32 noundef %21)
  %23 = xor i1 %22, true
  br label %24

24:                                               ; preds = %16, %4
  %25 = phi i1 [ false, %4 ], [ %23, %16 ]
  %26 = zext i1 %25 to i8
  store i8 %26, ptr %9, align 1
  %27 = load i8, ptr %9, align 1, !range !4, !noundef !5
  %28 = trunc i8 %27 to i1
  br i1 %28, label %29, label %33

29:                                               ; preds = %24
  %30 = load ptr, ptr %6, align 8
  %31 = getelementptr inbounds nuw %struct.deparse_context, ptr %30, i32 0, i32 0
  %32 = load ptr, ptr %31, align 8
  call void @appendStringInfoChar(ptr noundef %32, i8 noundef signext 40)
  br label %33

33:                                               ; preds = %29, %24
  %34 = load ptr, ptr %5, align 8
  %35 = load ptr, ptr %6, align 8
  %36 = load i8, ptr %7, align 1, !range !4, !noundef !5
  %37 = trunc i8 %36 to i1
  call void @get_rule_expr(ptr noundef %34, ptr noundef %35, i1 noundef zeroext %37)
  %38 = load i8, ptr %9, align 1, !range !4, !noundef !5
  %39 = trunc i8 %38 to i1
  br i1 %39, label %40, label %44

40:                                               ; preds = %33
  %41 = load ptr, ptr %6, align 8
  %42 = getelementptr inbounds nuw %struct.deparse_context, ptr %41, i32 0, i32 0
  %43 = load ptr, ptr %42, align 8
  call void @appendStringInfoChar(ptr noundef %43, i8 noundef signext 41)
  br label %44

44:                                               ; preds = %40, %33
  call void @llvm.lifetime.end.p0(i64 1, ptr %9) #10
  ret void
}