; Function Attrs: nounwind uwtable
define internal fastcc void @get_rule_expr_paren(ptr noundef %0, ptr noundef %1, i1 noundef zeroext %2, ptr noundef nonnull readonly captures(none) %3) unnamed_addr #0 {
  %5 = getelementptr inbounds nuw i8, ptr %1, i64 40
  %6 = load i32, ptr %5, align 8
  %7 = and i32 %6, 1
  %.not = icmp eq i32 %7, 0
  br i1 %.not, label %.critedge, label %8

8:                                                ; preds = %4
  %9 = tail call fastcc zeroext i1 @isSimpleNode(ptr noundef %0, ptr noundef %3, i32 noundef %6)
  br i1 %9, label %.critedge, label %10

10:                                               ; preds = %8
  %11 = load ptr, ptr %1, align 8
  tail call void @appendStringInfoChar(ptr noundef %11, i8 noundef signext 40) #11
  tail call fastcc void @get_rule_expr(ptr noundef %0, ptr noundef nonnull %1, i1 noundef zeroext %2)
  %12 = load ptr, ptr %1, align 8
  tail call void @appendStringInfoChar(ptr noundef %12, i8 noundef signext 41) #11
  br label %13

.critedge:                                        ; preds = %4, %8
  tail call fastcc void @get_rule_expr(ptr noundef %0, ptr noundef nonnull %1, i1 noundef zeroext %2)
  br label %13

13:                                               ; preds = %.critedge, %10
  ret void
}